target datalayout = "e-m:e-p270:32:32-p271:32:32-p272:64:64-i64:64-i128:128-f80:128-n8:16:32:64-S128"
target triple = "x86_64-pc-linux-gnu"

%"struct.clang::ento::bugreporter::Tracker::Result" = type { i8, i8 }
%"struct.clang::ento::bugreporter::TrackingOptions" = type <{ i32, i8, [3 x i8] }>
%"class.clang::ento::bugreporter::ExpressionHandler" = type { ptr, ptr }

; Function Attrs: mustprogress nounwind uwtable
define linkonce_odr hidden noundef nonnull align 8 dereferenceable(72) ptr @_ZN5clang4ento11bugreporter17ExpressionHandler16getParentTrackerEv(ptr noundef nonnull align 8 dereferenceable(16) %0) #0 comdat align 2 {
  %2 = alloca ptr, align 8
  store ptr %0, ptr %2, align 8
  %3 = load ptr, ptr %2, align 8
  %4 = getelementptr inbounds nuw %"class.clang::ento::bugreporter::ExpressionHandler", ptr %3, i32 0, i32 1
  %5 = load ptr, ptr %4, align 8
  ret ptr %5
}

; Function Attrs: mustprogress nounwind uwtable
define internal i16 @_ZN12_GLOBAL__N_118NilReceiverHandler6handleEPKN5clang4ExprEPKNS1_4ento12ExplodedNodeES8_NS5_11bugreporter15TrackingOptionsE(ptr noundef nonnull align 8 dereferenceable(16) %0, ptr noundef %1, ptr noundef %2, ptr noundef %3, i64 %4) unnamed_addr #0 align 2 {
  %6 = alloca %"struct.clang::ento::bugreporter::Tracker::Result", align 1
  %7 = alloca %"struct.clang::ento::bugreporter::TrackingOptions", align 4
  %8 = alloca ptr, align 8
  %9 = alloca ptr, align 8
  %10 = alloca ptr, align 8
  %11 = alloca ptr, align 8
  %12 = alloca ptr, align 8
  %13 = alloca %"struct.clang::ento::bugreporter::TrackingOptions", align 4
  store i64 %4, ptr %7, align 4
  store ptr %0, ptr %8, align 8
  store ptr %1, ptr %9, align 8
  store ptr %2, ptr %10, align 8
  store ptr %3, ptr %11, align 8
  %14 = load ptr, ptr %8, align 8
  %15 = load ptr, ptr %9, align 8
  %16 = load ptr, ptr %11, align 8
  %17 = call noundef ptr @_ZN5clang4ento20NilReceiverBRVisitor14getNilReceiverEPKNS_4StmtEPKNS0_12ExplodedNodeE(ptr noundef %15, ptr noundef %16)
  store ptr %17, ptr %12, align 8
  %18 = load ptr, ptr %12, align 8
  %19 = icmp ne ptr %18, null
  br i1 %19, label %20, label %29

20:                                               ; preds = %5
  %21 = call noundef nonnull align 8 dereferenceable(72) ptr @_ZN5clang4ento11bugreporter17ExpressionHandler16getParentTrackerEv(ptr noundef nonnull align 8 dereferenceable(16) %14)
  %22 = load ptr, ptr %12, align 8
  %23 = load ptr, ptr %11, align 8
  call void @llvm.memcpy.p0.p0.i64(ptr align 4 %13, ptr align 4 %7, i64 8, i1 false)
  %24 = load i64, ptr %13, align 4
  %25 = load ptr, ptr %21, align 8
  %26 = getelementptr inbounds ptr, ptr %25, i64 2
  %27 = load ptr, ptr %26, align 8
  %28 = call i16 %27(ptr noundef nonnull align 8 dereferenceable(72) %21, ptr noundef %22, ptr noundef %23, i64 %24)
  store i16 %28, ptr %6, align 1
  br label %32

29:                                               ; preds = %5
  %30 = getelementptr inbounds nuw %"struct.clang::ento::bugreporter::Tracker::Result", ptr %6, i32 0, i32 0
  store i8 0, ptr %30, align 1
  %31 = getelementptr inbounds nuw %"struct.clang::ento::bugreporter::Tracker::Result", ptr %6, i32 0, i32 1
  store i8 0, ptr %31, align 1
  br label %32

32:                                               ; preds = %29, %20
  %33 = load i16, ptr %6, align 1
  ret i16 %33
}