; Function Attrs: mustprogress nounwind uwtable
define internal i16 @_ZN12_GLOBAL__N_118NilReceiverHandler6handleEPKN5clang4ExprEPKNS1_4ento12ExplodedNodeES8_NS5_11bugreporter15TrackingOptionsE(ptr noundef nonnull readonly align 8 captures(none) dereferenceable(16) %0, ptr noundef readonly captures(none) %1, ptr readnone captures(none) %2, ptr noundef %3, i64 %4) unnamed_addr #0 align 2 {
  %6 = tail call noundef ptr @_ZN5clang4ento20NilReceiverBRVisitor14getNilReceiverEPKNS_4StmtEPKNS0_12ExplodedNodeE(ptr noundef %1, ptr noundef %3)
  %.not = icmp eq ptr %6, null
  br i1 %.not, label %14, label %7

7:                                                ; preds = %5
  %8 = getelementptr inbounds nuw i8, ptr %0, i64 8
  %9 = load ptr, ptr %8, align 8
  %10 = load ptr, ptr %9, align 8
  %11 = getelementptr inbounds nuw i8, ptr %10, i64 16
  %12 = load ptr, ptr %11, align 8
  %13 = tail call i16 %12(ptr noundef nonnull align 8 dereferenceable(72) %9, ptr noundef nonnull %6, ptr noundef %3, i64 %4) #22
  br label %14

14:                                               ; preds = %5, %7
  %.sroa.07.0.insert.insert = phi i16 [ %13, %7 ], [ 0, %5 ]
  ret i16 %.sroa.07.0.insert.insert
}